target datalayout = "e-m:e-p270:32:32-p271:32:32-p272:64:64-i64:64-i128:128-f80:128-n8:16:32:64-S128"
target triple = "x86_64-pc-linux-gnu"

%class.goal2nlsat = type { ptr }
%"struct.goal2nlsat::imp" = type <{ ptr, ptr, ptr, ptr, %class.arith_util, ptr, ptr, %"struct.goal2nlsat::imp::nlsat_expr2polynomial", %"struct.polynomial::factor_params", [4 x i8], i64, i8, [7 x i8] }>
%class.arith_util = type { ptr, ptr }
%"struct.goal2nlsat::imp::nlsat_expr2polynomial" = type { %class.expr2polynomial, ptr }
%class.expr2polynomial = type { ptr, ptr }
%"struct.polynomial::factor_params" = type { i32, i32, i32 }
%"struct.goal2nlsat::scoped_set_imp" = type { ptr }
%class.goal = type <{ ptr, %class.ref, %class.ref.0, %class.ref.1, i32, [4 x i8], %"class.std::__cxx11::basic_string", %"class.parray_manager<ast_manager::expr_array_config>::ref", %"class.parray_manager<ast_manager::expr_array_config>::ref", %"class.parray_manager<ast_manager::expr_dependency_array_config>::ref", i32, [4 x i8] }>
%class.ref = type { ptr }
%class.ref.0 = type { ptr }
%class.ref.1 = type { ptr }
%"class.std::__cxx11::basic_string" = type { %"struct.std::__cxx11::basic_string<char>::_Alloc_hider", i64, %union.anon }
%"struct.std::__cxx11::basic_string<char>::_Alloc_hider" = type { ptr }
%union.anon = type { i64, [8 x i8] }
%"class.parray_manager<ast_manager::expr_array_config>::ref" = type <{ ptr, i32, [4 x i8] }>
%"class.parray_manager<ast_manager::expr_dependency_array_config>::ref" = type <{ ptr, i32, [4 x i8] }>

; Function Attrs: inlinehint mustprogress nounwind uwtable
define linkonce_odr hidden void @_ZN10goal2nlsat3impD2Ev(ptr noundef nonnull align 8 dereferenceable(113) %0) unnamed_addr #7 comdat align 2 {
  %2 = alloca ptr, align 8
  store ptr %0, ptr %2, align 8, !tbaa !48
  %3 = load ptr, ptr %2, align 8
  %4 = getelementptr inbounds nuw %"struct.goal2nlsat::imp", ptr %3, i32 0, i32 7
  call void @_ZN15expr2polynomialD2Ev(ptr noundef nonnull align 8 dereferenceable(24) %4) #3
  ret void
}

; Function Attrs: mustprogress nounwind uwtable
define linkonce_odr hidden void @_ZN10goal2nlsat14scoped_set_impD2Ev(ptr noundef nonnull align 8 dereferenceable(8) %0) unnamed_addr #4 comdat align 2 {
  %2 = alloca ptr, align 8
  store ptr %0, ptr %2, align 8, !tbaa !65
  %3 = load ptr, ptr %2, align 8
  %4 = getelementptr inbounds nuw %"struct.goal2nlsat::scoped_set_imp", ptr %3, i32 0, i32 0
  %5 = load ptr, ptr %4, align 8, !tbaa !67
  %6 = getelementptr inbounds nuw %class.goal2nlsat, ptr %5, i32 0, i32 0
  store ptr null, ptr %6, align 8, !tbaa !18
  ret void
}

; Function Attrs: mustprogress nounwind uwtable
define linkonce_odr hidden void @_ZN10goal2nlsat14scoped_set_impC2ERS_RNS_3impE(ptr noundef nonnull align 8 dereferenceable(8) %0, ptr noundef nonnull align 8 dereferenceable(8) %1, ptr noundef nonnull align 8 dereferenceable(113) %2) unnamed_addr #4 comdat align 2 {
  %4 = alloca ptr, align 8
  %5 = alloca ptr, align 8
  %6 = alloca ptr, align 8
  store ptr %0, ptr %4, align 8, !tbaa !65
  store ptr %1, ptr %5, align 8, !tbaa !16
  store ptr %2, ptr %6, align 8, !tbaa !48
  %7 = load ptr, ptr %4, align 8
  %8 = getelementptr inbounds nuw %"struct.goal2nlsat::scoped_set_imp", ptr %7, i32 0, i32 0
  %9 = load ptr, ptr %5, align 8, !tbaa !16
  store ptr %9, ptr %8, align 8, !tbaa !16
  %10 = load ptr, ptr %6, align 8, !tbaa !48
  %11 = getelementptr inbounds nuw %"struct.goal2nlsat::scoped_set_imp", ptr %7, i32 0, i32 0
  %12 = load ptr, ptr %11, align 8, !tbaa !67
  %13 = getelementptr inbounds nuw %class.goal2nlsat, ptr %12, i32 0, i32 0
  store ptr %10, ptr %13, align 8, !tbaa !18
  ret void
}

; Function Attrs: mustprogress nounwind uwtable
define linkonce_odr hidden noundef nonnull align 8 dereferenceable(976) ptr @_ZNK4goal1mEv(ptr noundef nonnull align 8 dereferenceable(124) %0) #4 comdat align 2 {
  %2 = alloca ptr, align 8
  store ptr %0, ptr %2, align 8, !tbaa !23
  %3 = load ptr, ptr %2, align 8
  %4 = getelementptr inbounds nuw %class.goal, ptr %3, i32 0, i32 0
  %5 = load ptr, ptr %4, align 8, !tbaa !31
  ret ptr %5
}

; Function Attrs: mustprogress uwtable
define hidden void @_ZN10goal2nlsatclERK4goalRK10params_refRN5nlsat6solverER8expr2varSA_(ptr noundef nonnull align 8 dereferenceable(8) %0, ptr noundef nonnull align 8 dereferenceable(124) %1, ptr noundef nonnull align 8 dereferenceable(8) %2, ptr noundef nonnull align 8 dereferenceable(16) %3, ptr noundef nonnull align 8 dereferenceable(41) %4, ptr noundef nonnull align 8 dereferenceable(41) %5) #6 align 2 personality ptr @__gxx_personality_v0 {
  %7 = alloca ptr, align 8
  %8 = alloca ptr, align 8
  %9 = alloca ptr, align 8
  %10 = alloca ptr, align 8
  %11 = alloca ptr, align 8
  %12 = alloca ptr, align 8
  %13 = alloca %"struct.goal2nlsat::imp", align 8
  %14 = alloca %"struct.goal2nlsat::scoped_set_imp", align 8
  %15 = alloca ptr, align 8
  %16 = alloca i32, align 4
  store ptr %0, ptr %7, align 8, !tbaa !16
  store ptr %1, ptr %8, align 8, !tbaa !23
  store ptr %2, ptr %9, align 8, !tbaa !25
  store ptr %3, ptr %10, align 8, !tbaa !27
  store ptr %4, ptr %11, align 8, !tbaa !29
  store ptr %5, ptr %12, align 8, !tbaa !29
  %17 = load ptr, ptr %7, align 8
  call void @llvm.lifetime.start.p0(i64 120, ptr %13) #3
  %18 = load ptr, ptr %8, align 8, !tbaa !23
  %19 = call noundef nonnull align 8 dereferenceable(976) ptr @_ZNK4goal1mEv(ptr noundef nonnull align 8 dereferenceable(124) %18)
  %20 = load ptr, ptr %9, align 8, !tbaa !25
  %21 = load ptr, ptr %10, align 8, !tbaa !27
  %22 = load ptr, ptr %11, align 8, !tbaa !29
  %23 = load ptr, ptr %12, align 8, !tbaa !29
  call void @_ZN10goal2nlsat3impC2ER11ast_managerRK10params_refRN5nlsat6solverER8expr2varSA_(ptr noundef nonnull align 8 dereferenceable(113) %13, ptr noundef nonnull align 8 dereferenceable(976) %19, ptr noundef nonnull align 8 dereferenceable(8) %20, ptr noundef nonnull align 8 dereferenceable(16) %21, ptr noundef nonnull align 8 dereferenceable(41) %22, ptr noundef nonnull align 8 dereferenceable(41) %23)
  call void @llvm.lifetime.start.p0(i64 8, ptr %14) #3
  invoke void @_ZN10goal2nlsat14scoped_set_impC2ERS_RNS_3impE(ptr noundef nonnull align 8 dereferenceable(8) %14, ptr noundef nonnull align 8 dereferenceable(8) %17, ptr noundef nonnull align 8 dereferenceable(113) %13)
          to label %24 unwind label %27

24:                                               ; preds = %6
  %25 = load ptr, ptr %8, align 8, !tbaa !23
  invoke void @_ZN10goal2nlsat3impclERK4goal(ptr noundef nonnull align 8 dereferenceable(113) %13, ptr noundef nonnull align 8 dereferenceable(124) %25)
          to label %26 unwind label %31

26:                                               ; preds = %24
  call void @_ZN10goal2nlsat14scoped_set_impD2Ev(ptr noundef nonnull align 8 dereferenceable(8) %14) #3
  call void @llvm.lifetime.end.p0(i64 8, ptr %14) #3
  call void @_ZN10goal2nlsat3impD2Ev(ptr noundef nonnull align 8 dereferenceable(113) %13) #3
  call void @llvm.lifetime.end.p0(i64 120, ptr %13) #3
  ret void

27:                                               ; preds = %6
  %28 = landingpad { ptr, i32 }
          cleanup
  %29 = extractvalue { ptr, i32 } %28, 0
  store ptr %29, ptr %15, align 8
  %30 = extractvalue { ptr, i32 } %28, 1
  store i32 %30, ptr %16, align 4
  br label %35

31:                                               ; preds = %24
  %32 = landingpad { ptr, i32 }
          cleanup
  %33 = extractvalue { ptr, i32 } %32, 0
  store ptr %33, ptr %15, align 8
  %34 = extractvalue { ptr, i32 } %32, 1
  store i32 %34, ptr %16, align 4
  call void @_ZN10goal2nlsat14scoped_set_impD2Ev(ptr noundef nonnull align 8 dereferenceable(8) %14) #3
  br label %35

35:                                               ; preds = %31, %27
  call void @llvm.lifetime.end.p0(i64 8, ptr %14) #3
  call void @_ZN10goal2nlsat3impD2Ev(ptr noundef nonnull align 8 dereferenceable(113) %13) #3
  call void @llvm.lifetime.end.p0(i64 120, ptr %13) #3
  br label %36

36:                                               ; preds = %35
  %37 = load ptr, ptr %15, align 8
  %38 = load i32, ptr %16, align 4
  %39 = insertvalue { ptr, i32 } poison, ptr %37, 0
  %40 = insertvalue { ptr, i32 } %39, i32 %38, 1
  resume { ptr, i32 } %40
}