; Function Attrs: mustprogress uwtable
define hidden void @_ZN10goal2nlsatclERK4goalRK10params_refRN5nlsat6solverER8expr2varSA_(ptr noundef nonnull writeonly align 8 captures(none) dereferenceable(8) initializes((0, 8)) %0, ptr noundef nonnull align 8 dereferenceable(124) %1, ptr noundef nonnull align 8 dereferenceable(8) %2, ptr noundef nonnull align 8 dereferenceable(16) %3, ptr noundef nonnull align 8 dereferenceable(41) %4, ptr noundef nonnull align 8 dereferenceable(41) %5) local_unnamed_addr #6 align 2 personality ptr @__gxx_personality_v0 {
  %7 = alloca %"struct.goal2nlsat::imp", align 8
  call void @llvm.lifetime.start.p0(i64 120, ptr nonnull %7) #21
  %8 = load ptr, ptr %1, align 8, !tbaa !9
  call void @_ZN10goal2nlsat3impC2ER11ast_managerRK10params_refRN5nlsat6solverER8expr2varSA_(ptr noundef nonnull align 8 dereferenceable(113) %7, ptr noundef nonnull align 8 dereferenceable(976) %8, ptr noundef nonnull align 8 dereferenceable(8) %2, ptr noundef nonnull align 8 dereferenceable(16) %3, ptr noundef nonnull align 8 dereferenceable(41) %4, ptr noundef nonnull align 8 dereferenceable(41) %5)
  store ptr %7, ptr %0, align 8, !tbaa !3
  invoke void @_ZN10goal2nlsat3impclERK4goal(ptr noundef nonnull align 8 dereferenceable(113) %7, ptr noundef nonnull align 8 dereferenceable(124) %1)
          to label %9 unwind label %11

9:                                                ; preds = %6
  store ptr null, ptr %0, align 8, !tbaa !3
  %10 = getelementptr inbounds nuw i8, ptr %7, i64 64
  call void @_ZN15expr2polynomialD2Ev(ptr noundef nonnull align 8 dereferenceable(24) %10) #21
  call void @llvm.lifetime.end.p0(i64 120, ptr nonnull %7) #21
  ret void

11:                                               ; preds = %6
  %12 = landingpad { ptr, i32 }
          cleanup
  store ptr null, ptr %0, align 8, !tbaa !3
  %13 = getelementptr inbounds nuw i8, ptr %7, i64 64
  call void @_ZN15expr2polynomialD2Ev(ptr noundef nonnull align 8 dereferenceable(24) %13) #21
  call void @llvm.lifetime.end.p0(i64 120, ptr nonnull %7) #21
  resume { ptr, i32 } %12
}